-----BEGIN CERTIFICATE-----
MIIB9TCCAZ8CAxAALDANBgkqhkiG9w0BAQsFADCBnzEfMB0GA1UEChMWU3BpcmVu
dCBDb21tdW5pY2F0aW9uczEMMAoGA1UECxMDUEFXMSIwIAYJKoZIhvcNAQkBFhNz
dXBwb3J0QHNwaXJlbnQuY29tMRIwEAYDVQQHEwlFYXRvbnRvd24xCzAJBgNVBAgT
Ak5KMQswCQYDVQQGEwJVUzEcMBoGA1UEAxMTd3d3LnNwaXJlbnQtbGNzLmNvbTAg
Fw0xNzAzMDMwOTM2MTdaGA8yMTE3MDIwNzA5MzYxN1owZzELMAkGA1UEBhMCVVMx
CzAJBgNVBAgTAk5KMR8wHQYDVQQKExZTcGlyZW50IENvbW11bmljYXRpb25zMQww
CgYDVQQLEwNQQVcxHDAaBgNVBAMTE3d3dy5zcGlyZW50LWxjcy5jb20wXDANBgkq
hkiG9w0BAQEFAANLADBIAkEA7hDzb8s3NbG10ZcnRGtkbYn1kg0XEozAx28AzWcB
qc+PAF3m0uViHwu8LE+mk9Lr8OISojo2U3LFM1LHY9x5lwIDAQABMA0GCSqGSIb3
DQEBCwUAA0EAjjLDCHHn4g31B1WmWptRwuBDZnbYf0Tr97bqWqQ2IaHn9lrJKAnr
CWcxKSyNRkeWJ8Wi9RGSpjUabD2UGQ0+Dg==
-----END CERTIFICATE-----
Certificate:
    Data:
        Version: 1 (0x0)
        Serial Number: 1048620 (0x10002c)
    Signature Algorithm: sha256WithRSAEncryption
        Issuer: O=Spirent Communications, OU=PAW/emailAddress=support@spirent.com, L=Eatontown, ST=NJ, C=US, CN=www.spirent-lcs.com
        Validity
            Not Before: Mar  3 09:36:17 2017 GMT
            Not After : Feb  7 09:36:17 2117 GMT
        Subject: C=US, ST=NJ, O=Spirent Communications, OU=PAW, CN=www.spirent-lcs.com
        Subject Public Key Info:
            Public Key Algorithm: rsaEncryption
                Public-Key: (512 bit)
                Modulus:
                    00:ee:10:f3:6f:cb:37:35:b1:b5:d1:97:27:44:6b:
                    64:6d:89:f5:92:0d:17:12:8c:c0:c7:6f:00:cd:67:
                    01:a9:cf:8f:00:5d:e6:d2:e5:62:1f:0b:bc:2c:4f:
                    a6:93:d2:eb:f0:e2:12:a2:3a:36:53:72:c5:33:52:
                    c7:63:dc:79:97
                Exponent: 65537 (0x10001)
    Signature Algorithm: sha256WithRSAEncryption
         8e:32:c3:08:71:e7:e2:0d:f5:07:55:a6:5a:9b:51:c2:e0:43:
         66:76:d8:7f:44:eb:f7:b6:ea:5a:a4:36:21:a1:e7:f6:5a:c9:
         28:09:eb:09:67:31:29:2c:8d:46:47:96:27:c5:a2:f5:11:92:
         a6:35:1a:6c:3d:94:19:0d:3e:0e
SHA1 Fingerprint=BD:8C:4D:9D:A5:85:0D:D6:3F:FC:69:1D:56:E0:0D:64:F2:1B:CF:B8
