-----BEGIN CERTIFICATE-----
MIICQjCCAewCCQDZ9j78P4VYLDANBgkqhkiG9w0BAQUFADCBpzEfMB0GA1UEChMW
U3BpcmVudCBDb21tdW5pY2F0aW9uczEOMAwGA1UECxMFUEEtV1AxJTAjBgkqhkiG
9w0BCQEWFnN1cHBvcnRAc3BpcmVudGNvbS5jb20xEjAQBgNVBAcTCUVhdG9udG93
bjELMAkGA1UECBMCTkoxCzAJBgNVBAYTAlVTMR8wHQYDVQQDExZzcGlyZW50IENv
bW11bmljYXRpb25zMB4XDTk4MDEwMjE1MjUyOVoXDTE3MTIyODE1MjUyOVowgacx
HzAdBgNVBAoTFlNwaXJlbnQgQ29tbXVuaWNhdGlvbnMxDjAMBgNVBAsTBVBBLVdQ
MSUwIwYJKoZIhvcNAQkBFhZzdXBwb3J0QHNwaXJlbnRjb20uY29tMRIwEAYDVQQH
EwlFYXRvbnRvd24xCzAJBgNVBAgTAk5KMQswCQYDVQQGEwJVUzEfMB0GA1UEAxMW
c3BpcmVudCBDb21tdW5pY2F0aW9uczBcMA0GCSqGSIb3DQEBAQUAA0sAMEgCQQC9
DEVw4fIKnNB/BgqKRh8G5Fb/8CW0BshBAofAUmkzmFr2pZj46HO8phJ0NfstSRMH
0euv9yU0DIL4PFCl+JGpAgMBAAEwDQYJKoZIhvcNAQEFBQADQQAKB00iTL0LDLy4
DdRkZ+1O8f2l8/2lNhwpjerhNYLaVvnjAff948+3LrSHgsCmycFQC0DwoelJZTjZ
NSy3yOOM
-----END CERTIFICATE-----
Certificate:
    Data:
        Version: 1 (0x0)
        Serial Number:
            d9:f6:3e:fc:3f:85:58:2c
    Signature Algorithm: sha1WithRSAEncryption
        Issuer: O=Spirent Communications, OU=PA-WP/emailAddress=support@spirentcom.com, L=Eatontown, ST=NJ, C=US, CN=spirent Communications
        Validity
            Not Before: Jan  2 15:25:29 1998 GMT
            Not After : Dec 28 15:25:29 2017 GMT
        Subject: O=Spirent Communications, OU=PA-WP/emailAddress=support@spirentcom.com, L=Eatontown, ST=NJ, C=US, CN=spirent Communications
        Subject Public Key Info:
            Public Key Algorithm: rsaEncryption
                Public-Key: (512 bit)
                Modulus:
                    00:bd:0c:45:70:e1:f2:0a:9c:d0:7f:06:0a:8a:46:
                    1f:06:e4:56:ff:f0:25:b4:06:c8:41:02:87:c0:52:
                    69:33:98:5a:f6:a5:98:f8:e8:73:bc:a6:12:74:35:
                    fb:2d:49:13:07:d1:eb:af:f7:25:34:0c:82:f8:3c:
                    50:a5:f8:91:a9
                Exponent: 65537 (0x10001)
    Signature Algorithm: sha1WithRSAEncryption
         0a:07:4d:22:4c:bd:0b:0c:bc:b8:0d:d4:64:67:ed:4e:f1:fd:
         a5:f3:fd:a5:36:1c:29:8d:ea:e1:35:82:da:56:f9:e3:01:f7:
         fd:e3:cf:b7:2e:b4:87:82:c0:a6:c9:c1:50:0b:40:f0:a1:e9:
         49:65:38:d9:35:2c:b7:c8:e3:8c
SHA1 Fingerprint=42:87:0C:3D:A5:0E:86:8B:DE:7B:57:C8:FD:9D:BA:EA:62:60:69:24
